target datalayout = "e-m:e-p270:32:32-p271:32:32-p272:64:64-i64:64-i128:128-f80:128-n8:16:32:64-S128"
target triple = "x86_64-pc-linux-gnu"

%"class.google::protobuf::internal::InternalMetadata" = type { i64 }
%"struct.google::protobuf::internal::ArenaStringPtr" = type { %"class.google::protobuf::internal::TaggedPtr" }
%"class.google::protobuf::internal::TaggedPtr" = type { ptr }
%union.pthread_mutex_t = type { %struct.__pthread_mutex_s }
%struct.__pthread_mutex_s = type { i32, i32, i32, i32, i32, i16, i16, %struct.__pthread_internal_list }
%struct.__pthread_internal_list = type { ptr, ptr }
%"struct.std::atomic.3" = type { i32 }
%"class.google::protobuf::internal::MapFieldLite" = type { %"class.google::protobuf::Map" }
%"class.google::protobuf::Map" = type { %"class.google::protobuf::Map<std::__cxx11::basic_string<char>, opencv_tensorflow::AttrValue>::InnerMap" }
%"class.google::protobuf::Map<std::__cxx11::basic_string<char>, opencv_tensorflow::AttrValue>::InnerMap" = type { i64, i64, i64, i64, ptr, %"class.google::protobuf::internal::MapAllocator" }
%"class.google::protobuf::internal::MapAllocator" = type { ptr }
%"class.google::protobuf::Message" = type { %"class.google::protobuf::MessageLite" }
%"class.google::protobuf::MessageLite" = type { ptr, %"class.google::protobuf::internal::InternalMetadata" }
%"class.google::protobuf::internal::RepeatedPtrFieldBase" = type { ptr, i32, i32, ptr }
%"class.google::protobuf::internal::CachedSize" = type { %"struct.std::atomic" }
%"struct.std::atomic" = type { %"struct.std::__atomic_base" }
%"struct.std::__atomic_base" = type { i32 }
%"class.opencv_tensorflow::FunctionDef_Node" = type <{ %"class.google::protobuf::Message", %"class.google::protobuf::RepeatedPtrField.2", %"class.google::protobuf::RepeatedPtrField.2", %"class.google::protobuf::RepeatedPtrField.2", %"class.google::protobuf::internal::MapField", %"struct.google::protobuf::internal::ArenaStringPtr", %"class.google::protobuf::internal::CachedSize", [4 x i8] }>
%"class.google::protobuf::RepeatedPtrField.2" = type { %"class.google::protobuf::internal::RepeatedPtrFieldBase" }
%"class.google::protobuf::internal::MapField" = type { %"class.google::protobuf::internal::TypeDefinedMapFieldBase.base", %"class.google::protobuf::internal::MapFieldLite" }
%"class.google::protobuf::internal::TypeDefinedMapFieldBase.base" = type { %"class.google::protobuf::internal::MapFieldBase.base" }
%"class.google::protobuf::internal::MapFieldBase.base" = type <{ ptr, ptr, ptr, %"class.google::protobuf::internal::WrappedMutex", %"struct.std::atomic.3" }>
%"class.google::protobuf::internal::WrappedMutex" = type { %"class.std::mutex" }
%"class.std::mutex" = type { %"class.std::__mutex_base" }
%"class.std::__mutex_base" = type { %union.pthread_mutex_t }

; Function Attrs: mustprogress nounwind uwtable
define linkonce_odr hidden void @_ZN6google8protobuf8internal12MapAllocatorIPvE10deallocateEPS3_m(ptr noundef nonnull align 8 dereferenceable(8) %0, ptr noundef %1, i64 noundef %2) #7 comdat align 2 {
  %4 = alloca ptr, align 8
  %5 = alloca ptr, align 8
  %6 = alloca i64, align 8
  store ptr %0, ptr %4, align 8, !tbaa !251
  store ptr %1, ptr %5, align 8, !tbaa !269
  store i64 %2, ptr %6, align 8, !tbaa !72
  %7 = load ptr, ptr %4, align 8
  %8 = getelementptr inbounds nuw %"class.google::protobuf::internal::MapAllocator", ptr %7, i32 0, i32 0
  %9 = load ptr, ptr %8, align 8, !tbaa !253
  %10 = icmp eq ptr %9, null
  br i1 %10, label %11, label %13

11:                                               ; preds = %3
  %12 = load ptr, ptr %5, align 8, !tbaa !269
  call void @_ZdlPv(ptr noundef %12) #3
  br label %13

13:                                               ; preds = %11, %3
  ret void
}

; Function Attrs: mustprogress uwtable
define linkonce_odr hidden void @_ZN6google8protobuf3MapINSt7__cxx1112basic_stringIcSt11char_traitsIcESaIcEEEN17opencv_tensorflow9AttrValueEE8InnerMap7DeallocIPvEEvPT_m(ptr noundef nonnull align 8 dereferenceable(48) %0, ptr noundef %1, i64 noundef %2) #4 comdat align 2 {
  %4 = alloca ptr, align 8
  %5 = alloca ptr, align 8
  %6 = alloca i64, align 8
  %7 = alloca %"class.google::protobuf::internal::MapAllocator", align 8
  store ptr %0, ptr %4, align 8, !tbaa !194
  store ptr %1, ptr %5, align 8, !tbaa !269
  store i64 %2, ptr %6, align 8, !tbaa !72
  %8 = load ptr, ptr %4, align 8
  call void @llvm.lifetime.start.p0(i64 8, ptr %7) #3
  %9 = getelementptr inbounds nuw %"class.google::protobuf::Map<std::__cxx11::basic_string<char>, opencv_tensorflow::AttrValue>::InnerMap", ptr %8, i32 0, i32 5
  call void @llvm.memcpy.p0.p0.i64(ptr align 8 %7, ptr align 8 %9, i64 8, i1 false), !tbaa.struct !270
  %10 = load ptr, ptr %5, align 8, !tbaa !269
  %11 = load i64, ptr %6, align 8, !tbaa !72
  call void @_ZN6google8protobuf8internal12MapAllocatorIPvE10deallocateEPS3_m(ptr noundef nonnull align 8 dereferenceable(8) %7, ptr noundef %10, i64 noundef %11)
  call void @llvm.lifetime.end.p0(i64 8, ptr %7) #3
  ret void
}

; Function Attrs: mustprogress nounwind uwtable
define linkonce_odr hidden noundef ptr @_ZNK6google8protobuf8internal12MapAllocatorIPvE5arenaEv(ptr noundef nonnull align 8 dereferenceable(8) %0) #7 comdat align 2 {
  %2 = alloca ptr, align 8
  store ptr %0, ptr %2, align 8, !tbaa !251
  %3 = load ptr, ptr %2, align 8
  %4 = getelementptr inbounds nuw %"class.google::protobuf::internal::MapAllocator", ptr %3, i32 0, i32 0
  %5 = load ptr, ptr %4, align 8, !tbaa !253
  ret ptr %5
}

; Function Attrs: mustprogress nounwind uwtable
define linkonce_odr hidden void @_ZN6google8protobuf3MapINSt7__cxx1112basic_stringIcSt11char_traitsIcESaIcEEEN17opencv_tensorflow9AttrValueEE8InnerMapD2Ev(ptr noundef nonnull align 8 dereferenceable(48) %0) unnamed_addr #7 comdat align 2 personality ptr @__gxx_personality_v0 {
  %2 = alloca ptr, align 8
  store ptr %0, ptr %2, align 8, !tbaa !194
  %3 = load ptr, ptr %2, align 8
  %4 = getelementptr inbounds nuw %"class.google::protobuf::Map<std::__cxx11::basic_string<char>, opencv_tensorflow::AttrValue>::InnerMap", ptr %3, i32 0, i32 5
  %5 = invoke noundef ptr @_ZNK6google8protobuf8internal12MapAllocatorIPvE5arenaEv(ptr noundef nonnull align 8 dereferenceable(8) %4)
          to label %6 unwind label %20

6:                                                ; preds = %1
  %7 = icmp eq ptr %5, null
  br i1 %7, label %8, label %19

8:                                                ; preds = %6
  %9 = getelementptr inbounds nuw %"class.google::protobuf::Map<std::__cxx11::basic_string<char>, opencv_tensorflow::AttrValue>::InnerMap", ptr %3, i32 0, i32 1
  %10 = load i64, ptr %9, align 8, !tbaa !247
  %11 = icmp ne i64 %10, 1
  br i1 %11, label %12, label %19

12:                                               ; preds = %8
  invoke void @_ZN6google8protobuf3MapINSt7__cxx1112basic_stringIcSt11char_traitsIcESaIcEEEN17opencv_tensorflow9AttrValueEE8InnerMap5clearEv(ptr noundef nonnull align 8 dereferenceable(48) %3)
          to label %13 unwind label %20

13:                                               ; preds = %12
  %14 = getelementptr inbounds nuw %"class.google::protobuf::Map<std::__cxx11::basic_string<char>, opencv_tensorflow::AttrValue>::InnerMap", ptr %3, i32 0, i32 4
  %15 = load ptr, ptr %14, align 8, !tbaa !250
  %16 = getelementptr inbounds nuw %"class.google::protobuf::Map<std::__cxx11::basic_string<char>, opencv_tensorflow::AttrValue>::InnerMap", ptr %3, i32 0, i32 1
  %17 = load i64, ptr %16, align 8, !tbaa !247
  invoke void @_ZN6google8protobuf3MapINSt7__cxx1112basic_stringIcSt11char_traitsIcESaIcEEEN17opencv_tensorflow9AttrValueEE8InnerMap7DeallocIPvEEvPT_m(ptr noundef nonnull align 8 dereferenceable(48) %3, ptr noundef %15, i64 noundef %17)
          to label %18 unwind label %20

18:                                               ; preds = %13
  br label %19

19:                                               ; preds = %18, %8, %6
  ret void

20:                                               ; preds = %13, %12, %1
  %21 = landingpad { ptr, i32 }
          catch ptr null
  %22 = extractvalue { ptr, i32 } %21, 0
  call void @__clang_call_terminate(ptr %22) #22
  unreachable
}

; Function Attrs: mustprogress nounwind uwtable
define linkonce_odr hidden void @_ZN6google8protobuf3MapINSt7__cxx1112basic_stringIcSt11char_traitsIcESaIcEEEN17opencv_tensorflow9AttrValueEED2Ev(ptr noundef nonnull align 8 dereferenceable(48) %0) unnamed_addr #7 comdat align 2 {
  %2 = alloca ptr, align 8
  store ptr %0, ptr %2, align 8, !tbaa !128
  %3 = load ptr, ptr %2, align 8
  %4 = getelementptr inbounds nuw %"class.google::protobuf::Map", ptr %3, i32 0, i32 0
  call void @_ZN6google8protobuf3MapINSt7__cxx1112basic_stringIcSt11char_traitsIcESaIcEEEN17opencv_tensorflow9AttrValueEE8InnerMapD2Ev(ptr noundef nonnull align 8 dereferenceable(48) %4) #3
  ret void
}

; Function Attrs: inlinehint mustprogress nounwind uwtable
define linkonce_odr hidden void @_ZN6google8protobuf8internal12MapFieldLiteIN17opencv_tensorflow35FunctionDef_Node_AttrEntry_DoNotUseENSt7__cxx1112basic_stringIcSt11char_traitsIcESaIcEEENS3_9AttrValueELNS1_14WireFormatLite9FieldTypeE9ELSD_11EED2Ev(ptr noundef nonnull align 8 dereferenceable(48) %0) unnamed_addr #6 comdat align 2 {
  %2 = alloca ptr, align 8
  store ptr %0, ptr %2, align 8, !tbaa !245
  %3 = load ptr, ptr %2, align 8
  %4 = getelementptr inbounds nuw %"class.google::protobuf::internal::MapFieldLite", ptr %3, i32 0, i32 0
  call void @_ZN6google8protobuf3MapINSt7__cxx1112basic_stringIcSt11char_traitsIcESaIcEEEN17opencv_tensorflow9AttrValueEED2Ev(ptr noundef nonnull align 8 dereferenceable(48) %4) #3
  ret void
}

; Function Attrs: inlinehint mustprogress nounwind uwtable
define linkonce_odr hidden void @_ZN6google8protobuf8internal8MapFieldIN17opencv_tensorflow35FunctionDef_Node_AttrEntry_DoNotUseENSt7__cxx1112basic_stringIcSt11char_traitsIcESaIcEEENS3_9AttrValueELNS1_14WireFormatLite9FieldTypeE9ELSD_11EED2Ev(ptr noundef nonnull align 8 dereferenceable(120) %0) unnamed_addr #6 comdat align 2 {
  %2 = alloca ptr, align 8
  store ptr %0, ptr %2, align 8, !tbaa !90
  %3 = load ptr, ptr %2, align 8
  store ptr getelementptr inbounds inrange(-16, 192) ({ [26 x ptr] }, ptr @_ZTVN6google8protobuf8internal8MapFieldIN17opencv_tensorflow35FunctionDef_Node_AttrEntry_DoNotUseENSt7__cxx1112basic_stringIcSt11char_traitsIcESaIcEEENS3_9AttrValueELNS1_14WireFormatLite9FieldTypeE9ELSD_11EEE, i32 0, i32 0, i32 2), ptr %3, align 8, !tbaa !14
  %4 = getelementptr inbounds nuw %"class.google::protobuf::internal::MapField", ptr %3, i32 0, i32 1
  call void @_ZN6google8protobuf8internal12MapFieldLiteIN17opencv_tensorflow35FunctionDef_Node_AttrEntry_DoNotUseENSt7__cxx1112basic_stringIcSt11char_traitsIcESaIcEEENS3_9AttrValueELNS1_14WireFormatLite9FieldTypeE9ELSD_11EED2Ev(ptr noundef nonnull align 8 dereferenceable(48) %4) #3
  call void @_ZN6google8protobuf8internal12MapFieldBaseD2Ev(ptr noundef nonnull align 8 dereferenceable(68) %3) #3
  ret void
}

; Function Attrs: mustprogress nounwind uwtable
define hidden void @_ZN17opencv_tensorflow16FunctionDef_Node9ArenaDtorEPv(ptr noundef %0) #7 align 2 {
  %2 = alloca ptr, align 8
  %3 = alloca ptr, align 8
  store ptr %0, ptr %2, align 8, !tbaa !30
  call void @llvm.lifetime.start.p0(i64 8, ptr %3) #3
  %4 = load ptr, ptr %2, align 8, !tbaa !30
  store ptr %4, ptr %3, align 8, !tbaa !88
  %5 = load ptr, ptr %3, align 8, !tbaa !88
  %6 = getelementptr inbounds nuw %"class.opencv_tensorflow::FunctionDef_Node", ptr %5, i32 0, i32 4
  call void @_ZN6google8protobuf8internal8MapFieldIN17opencv_tensorflow35FunctionDef_Node_AttrEntry_DoNotUseENSt7__cxx1112basic_stringIcSt11char_traitsIcESaIcEEENS3_9AttrValueELNS1_14WireFormatLite9FieldTypeE9ELSD_11EED2Ev(ptr noundef nonnull align 8 dereferenceable(120) %6) #3
  call void @llvm.lifetime.end.p0(i64 8, ptr %3) #3
  ret void
}