; Function Attrs: mustprogress nounwind uwtable
define hidden void @_ZN17opencv_tensorflow16FunctionDef_Node9ArenaDtorEPv(ptr noundef initializes((88, 96)) %0) #5 align 2 personality ptr @__gxx_personality_v0 {
  %2 = getelementptr inbounds nuw i8, ptr %0, i64 88
  store ptr getelementptr inbounds nuw inrange(-16, 192) (i8, ptr @_ZTVN6google8protobuf8internal8MapFieldIN17opencv_tensorflow35FunctionDef_Node_AttrEntry_DoNotUseENSt7__cxx1112basic_stringIcSt11char_traitsIcESaIcEEENS3_9AttrValueELNS1_14WireFormatLite9FieldTypeE9ELSD_11EEE, i64 16), ptr %2, align 8, !tbaa !8
  %3 = getelementptr inbounds nuw i8, ptr %0, i64 200
  %4 = load ptr, ptr %3, align 8, !tbaa !97
  %5 = icmp ne ptr %4, null
  %6 = getelementptr inbounds nuw i8, ptr %0, i64 168
  %7 = load i64, ptr %6, align 8
  %.not.i.i.i.i = icmp eq i64 %7, 1
  %or.cond.i.i.i.i = select i1 %5, i1 true, i1 %.not.i.i.i.i
  br i1 %or.cond.i.i.i.i, label %_ZN6google8protobuf8internal8MapFieldIN17opencv_tensorflow35FunctionDef_Node_AttrEntry_DoNotUseENSt7__cxx1112basic_stringIcSt11char_traitsIcESaIcEEENS3_9AttrValueELNS1_14WireFormatLite9FieldTypeE9ELSD_11EED2Ev.exit, label %8

8:                                                ; preds = %1
  %9 = getelementptr inbounds nuw i8, ptr %0, i64 160
  invoke void @_ZN6google8protobuf3MapINSt7__cxx1112basic_stringIcSt11char_traitsIcESaIcEEEN17opencv_tensorflow9AttrValueEE8InnerMap5clearEv(ptr noundef nonnull align 8 dereferenceable(48) %9)
          to label %10 unwind label %16

10:                                               ; preds = %8
  %11 = load i64, ptr %3, align 8, !tbaa !62
  %12 = icmp eq i64 %11, 0
  br i1 %12, label %13, label %_ZN6google8protobuf8internal8MapFieldIN17opencv_tensorflow35FunctionDef_Node_AttrEntry_DoNotUseENSt7__cxx1112basic_stringIcSt11char_traitsIcESaIcEEENS3_9AttrValueELNS1_14WireFormatLite9FieldTypeE9ELSD_11EED2Ev.exit

13:                                               ; preds = %10
  %14 = getelementptr inbounds nuw i8, ptr %0, i64 192
  %15 = load ptr, ptr %14, align 8, !tbaa !96
  tail call void @_ZdlPv(ptr noundef %15) #30
  br label %_ZN6google8protobuf8internal8MapFieldIN17opencv_tensorflow35FunctionDef_Node_AttrEntry_DoNotUseENSt7__cxx1112basic_stringIcSt11char_traitsIcESaIcEEENS3_9AttrValueELNS1_14WireFormatLite9FieldTypeE9ELSD_11EED2Ev.exit

16:                                               ; preds = %8
  %17 = landingpad { ptr, i32 }
          catch ptr null
  %18 = extractvalue { ptr, i32 } %17, 0
  tail call void @__clang_call_terminate(ptr %18) #29
  unreachable

_ZN6google8protobuf8internal8MapFieldIN17opencv_tensorflow35FunctionDef_Node_AttrEntry_DoNotUseENSt7__cxx1112basic_stringIcSt11char_traitsIcESaIcEEENS3_9AttrValueELNS1_14WireFormatLite9FieldTypeE9ELSD_11EED2Ev.exit: ; preds = %1, %10, %13
  tail call void @_ZN6google8protobuf8internal12MapFieldBaseD2Ev(ptr noundef nonnull align 8 dereferenceable(120) %2) #30
  ret void
}